target datalayout = "e-m:e-p270:32:32-p271:32:32-p272:64:64-i64:64-i128:128-f80:128-n8:16:32:64-S128"
target triple = "x86_64-unknown-linux-gnu"

%"class.grpc_core::Duration" = type { i64 }
%"class.std::optional" = type { %"struct.std::_Optional_base" }
%"struct.std::_Optional_base" = type { %"struct.std::_Optional_payload" }
%"struct.std::_Optional_payload" = type { %"struct.std::_Optional_payload_base.base", [7 x i8] }
%"struct.std::_Optional_payload_base.base" = type <{ %"union.std::_Optional_payload_base<grpc_core::Duration>::_Storage", i8 }>
%"union.std::_Optional_payload_base<grpc_core::Duration>::_Storage" = type { %"class.grpc_core::Duration" }
%"class.std::basic_string_view" = type { i64, ptr }
%"struct.std::_Optional_payload_base" = type <{ %"union.std::_Optional_payload_base<grpc_core::Duration>::_Storage", i8, [7 x i8] }>

@.str.10 = private unnamed_addr constant [28 x i8] c"grpc.client_idle_timeout_ms\00", align 1

; Function Attrs: mustprogress uwtable
define linkonce_odr i64 @_ZN9grpc_core8Duration12MillisecondsEl(i64 noundef %millis) #4 comdat align 2 {
entry:
  %retval = alloca %"class.grpc_core::Duration", align 8
  %millis.addr = alloca i64, align 8
  store i64 %millis, ptr %millis.addr, align 8
  %0 = load i64, ptr %millis.addr, align 8
  call void @_ZN9grpc_core8DurationC2El(ptr noundef nonnull align 8 dereferenceable(8) %retval, i64 noundef %0)
  %coerce.dive = getelementptr inbounds %"class.grpc_core::Duration", ptr %retval, i32 0, i32 0
  %1 = load i64, ptr %coerce.dive, align 8
  ret i64 %1
}

; Function Attrs: mustprogress nounwind uwtable
define linkonce_odr noundef i64 @_ZNSt14numeric_limitsIlE3minEv() #5 comdat align 2 {
entry:
  ret i64 -9223372036854775808
}

; Function Attrs: mustprogress nounwind uwtable
define linkonce_odr noundef nonnull align 8 dereferenceable(8) ptr @_ZNSt22_Optional_payload_baseIN9grpc_core8DurationEE6_M_getEv(ptr noundef nonnull align 8 dereferenceable(9) %this) #5 comdat align 2 {
entry:
  %this.addr = alloca ptr, align 8
  store ptr %this, ptr %this.addr, align 8
  %this1 = load ptr, ptr %this.addr, align 8
  %_M_payload = getelementptr inbounds %"struct.std::_Optional_payload_base", ptr %this1, i32 0, i32 0
  ret ptr %_M_payload
}

; Function Attrs: mustprogress uwtable
define linkonce_odr i64 @_ZN9grpc_core8Duration7SecondsEl(i64 noundef %seconds) #4 comdat align 2 {
entry:
  %retval = alloca %"class.grpc_core::Duration", align 8
  %seconds.addr = alloca i64, align 8
  store i64 %seconds, ptr %seconds.addr, align 8
  %0 = load i64, ptr %seconds.addr, align 8
  %call = call noundef i64 @_ZN9grpc_core11time_detail9MillisMulEll(i64 noundef %0, i64 noundef 1000)
  %call1 = call i64 @_ZN9grpc_core8Duration12MillisecondsEl(i64 noundef %call)
  %coerce.dive = getelementptr inbounds %"class.grpc_core::Duration", ptr %retval, i32 0, i32 0
  store i64 %call1, ptr %coerce.dive, align 8
  %coerce.dive2 = getelementptr inbounds %"class.grpc_core::Duration", ptr %retval, i32 0, i32 0
  %1 = load i64, ptr %coerce.dive2, align 8
  ret i64 %1
}

; Function Attrs: mustprogress nounwind uwtable
define linkonce_odr noundef i64 @_ZN9grpc_core11time_detail9MillisMulEll(i64 noundef %millis, i64 noundef %mul) #5 comdat {
entry:
  %millis.addr = alloca i64, align 8
  %mul.addr = alloca i64, align 8
  store i64 %millis, ptr %millis.addr, align 8
  store i64 %mul, ptr %mul.addr, align 8
  %0 = load i64, ptr %millis.addr, align 8
  %call = call noundef i64 @_ZNSt14numeric_limitsIlE3maxEv() #3
  %1 = load i64, ptr %mul.addr, align 8
  %div = sdiv i64 %call, %1
  %cmp = icmp sge i64 %0, %div
  br i1 %cmp, label %cond.true, label %cond.false

cond.true:                                        ; preds = %entry
  %call1 = call noundef i64 @_ZNSt14numeric_limitsIlE3maxEv() #3
  br label %cond.end9

cond.false:                                       ; preds = %entry
  %2 = load i64, ptr %millis.addr, align 8
  %call2 = call noundef i64 @_ZNSt14numeric_limitsIlE3minEv() #3
  %3 = load i64, ptr %mul.addr, align 8
  %div3 = sdiv i64 %call2, %3
  %cmp4 = icmp sle i64 %2, %div3
  br i1 %cmp4, label %cond.true5, label %cond.false7

cond.true5:                                       ; preds = %cond.false
  %call6 = call noundef i64 @_ZNSt14numeric_limitsIlE3minEv() #3
  br label %cond.end

cond.false7:                                      ; preds = %cond.false
  %4 = load i64, ptr %millis.addr, align 8
  %5 = load i64, ptr %mul.addr, align 8
  %mul8 = mul nsw i64 %4, %5
  br label %cond.end

cond.end:                                         ; preds = %cond.false7, %cond.true5
  %cond = phi i64 [ %call6, %cond.true5 ], [ %mul8, %cond.false7 ]
  br label %cond.end9

cond.end9:                                        ; preds = %cond.end, %cond.true
  %cond10 = phi i64 [ %call1, %cond.true ], [ %cond, %cond.end ]
  ret i64 %cond10
}

; Function Attrs: mustprogress nounwind uwtable
define linkonce_odr noundef nonnull align 8 dereferenceable(8) ptr @_ZNSt19_Optional_base_implIN9grpc_core8DurationESt14_Optional_baseIS1_Lb1ELb1EEE6_M_getEv(ptr noundef nonnull align 1 dereferenceable(1) %this) #5 comdat align 2 {
entry:
  %this.addr = alloca ptr, align 8
  store ptr %this, ptr %this.addr, align 8
  %this1 = load ptr, ptr %this.addr, align 8
  br label %do.body

do.body:                                          ; preds = %entry
  br label %do.cond

do.cond:                                          ; preds = %do.body
  br label %do.end

do.end:                                           ; preds = %do.cond
  %_M_payload = getelementptr inbounds %"struct.std::_Optional_base", ptr %this1, i32 0, i32 0
  %call = call noundef nonnull align 8 dereferenceable(8) ptr @_ZNSt22_Optional_payload_baseIN9grpc_core8DurationEE6_M_getEv(ptr noundef nonnull align 8 dereferenceable(9) %_M_payload) #3
  ret ptr %call
}

; Function Attrs: mustprogress nounwind uwtable
define linkonce_odr noundef zeroext i1 @_ZNKSt19_Optional_base_implIN9grpc_core8DurationESt14_Optional_baseIS1_Lb1ELb1EEE13_M_is_engagedEv(ptr noundef nonnull align 1 dereferenceable(1) %this) #5 comdat align 2 {
entry:
  %this.addr = alloca ptr, align 8
  store ptr %this, ptr %this.addr, align 8
  %this1 = load ptr, ptr %this.addr, align 8
  %_M_payload = getelementptr inbounds %"struct.std::_Optional_base", ptr %this1, i32 0, i32 0
  %_M_engaged = getelementptr inbounds %"struct.std::_Optional_payload_base", ptr %_M_payload, i32 0, i32 1
  %0 = load i8, ptr %_M_engaged, align 8
  %tobool = trunc i8 %0 to i1
  ret i1 %tobool
}

; Function Attrs: mustprogress uwtable
define linkonce_odr i64 @_ZN9grpc_core8Duration7MinutesEl(i64 noundef %minutes) #4 comdat align 2 {
entry:
  %retval = alloca %"class.grpc_core::Duration", align 8
  %minutes.addr = alloca i64, align 8
  store i64 %minutes, ptr %minutes.addr, align 8
  %0 = load i64, ptr %minutes.addr, align 8
  %call = call noundef i64 @_ZN9grpc_core11time_detail9MillisMulEll(i64 noundef %0, i64 noundef 60)
  %call1 = call i64 @_ZN9grpc_core8Duration7SecondsEl(i64 noundef %call)
  %coerce.dive = getelementptr inbounds %"class.grpc_core::Duration", ptr %retval, i32 0, i32 0
  store i64 %call1, ptr %coerce.dive, align 8
  %coerce.dive2 = getelementptr inbounds %"class.grpc_core::Duration", ptr %retval, i32 0, i32 0
  %1 = load i64, ptr %coerce.dive2, align 8
  ret i64 %1
}

; Function Attrs: mustprogress uwtable
define linkonce_odr noundef zeroext i1 @_ZN9grpc_core23IsClientIdlenessEnabledEv() #4 comdat {
entry:
  %call = call noundef zeroext i1 @_ZN9grpc_core19IsExperimentEnabledEm(i64 noundef 2)
  ret i1 %call
}

; Function Attrs: noreturn nounwind uwtable
define linkonce_odr hidden void @__clang_call_terminate(ptr noundef %0) #10 comdat {
  %2 = call ptr @__cxa_begin_catch(ptr %0) #3
  call void @_ZSt9terminatev() #18
  unreachable
}

; Function Attrs: mustprogress nounwind uwtable
define linkonce_odr noundef i64 @_ZNSt11char_traitsIcE6lengthEPKc(ptr noundef %__s) #5 comdat align 2 {
entry:
  %__s.addr = alloca ptr, align 8
  store ptr %__s, ptr %__s.addr, align 8
  %0 = load ptr, ptr %__s.addr, align 8
  %call = call i64 @strlen(ptr noundef %0) #3
  ret i64 %call
}

; Function Attrs: mustprogress nounwind uwtable
define linkonce_odr void @_ZN9grpc_core8DurationC2El(ptr noundef nonnull align 8 dereferenceable(8) %this, i64 noundef %millis) unnamed_addr #5 comdat align 2 {
entry:
  %this.addr = alloca ptr, align 8
  %millis.addr = alloca i64, align 8
  store ptr %this, ptr %this.addr, align 8
  store i64 %millis, ptr %millis.addr, align 8
  %this1 = load ptr, ptr %this.addr, align 8
  %millis_ = getelementptr inbounds %"class.grpc_core::Duration", ptr %this1, i32 0, i32 0
  %0 = load i64, ptr %millis.addr, align 8
  store i64 %0, ptr %millis_, align 8
  ret void
}

; Function Attrs: mustprogress nounwind uwtable
define linkonce_odr noundef i64 @_ZNSt14numeric_limitsIlE3maxEv() #5 comdat align 2 {
entry:
  ret i64 9223372036854775807
}

; Function Attrs: mustprogress nounwind uwtable
define linkonce_odr i64 @_ZNOSt8optionalIN9grpc_core8DurationEE8value_orIS1_EES1_OT_(ptr noundef nonnull align 8 dereferenceable(16) %this, ptr noundef nonnull align 8 dereferenceable(8) %__u) #5 comdat align 2 {
entry:
  %retval = alloca %"class.grpc_core::Duration", align 8
  %this.addr = alloca ptr, align 8
  %__u.addr = alloca ptr, align 8
  store ptr %this, ptr %this.addr, align 8
  store ptr %__u, ptr %__u.addr, align 8
  %this1 = load ptr, ptr %this.addr, align 8
  %call = call noundef zeroext i1 @_ZNKSt19_Optional_base_implIN9grpc_core8DurationESt14_Optional_baseIS1_Lb1ELb1EEE13_M_is_engagedEv(ptr noundef nonnull align 1 dereferenceable(1) %this1) #3
  br i1 %call, label %if.then, label %if.else

if.then:                                          ; preds = %entry
  %call2 = call noundef nonnull align 8 dereferenceable(8) ptr @_ZNSt19_Optional_base_implIN9grpc_core8DurationESt14_Optional_baseIS1_Lb1ELb1EEE6_M_getEv(ptr noundef nonnull align 1 dereferenceable(1) %this1) #3
  call void @llvm.memcpy.p0.p0.i64(ptr align 8 %retval, ptr align 8 %call2, i64 8, i1 false)
  br label %return

if.else:                                          ; preds = %entry
  %0 = load ptr, ptr %__u.addr, align 8
  call void @llvm.memcpy.p0.p0.i64(ptr align 8 %retval, ptr align 8 %0, i64 8, i1 false)
  br label %return

return:                                           ; preds = %if.else, %if.then
  %coerce.dive = getelementptr inbounds %"class.grpc_core::Duration", ptr %retval, i32 0, i32 0
  %1 = load i64, ptr %coerce.dive, align 8
  ret i64 %1
}

; Function Attrs: mustprogress uwtable
define internal i64 @_ZN9grpc_core12_GLOBAL__N_118DefaultIdleTimeoutEv() #4 {
entry:
  %retval = alloca %"class.grpc_core::Duration", align 8
  %call = call noundef zeroext i1 @_ZN9grpc_core23IsClientIdlenessEnabledEv()
  br i1 %call, label %if.then, label %if.end

if.then:                                          ; preds = %entry
  %call1 = call i64 @_ZN9grpc_core8Duration7MinutesEl(i64 noundef 30)
  %coerce.dive = getelementptr inbounds %"class.grpc_core::Duration", ptr %retval, i32 0, i32 0
  store i64 %call1, ptr %coerce.dive, align 8
  br label %return

if.end:                                           ; preds = %entry
  %call2 = call i64 @_ZN9grpc_core8Duration8InfinityEv()
  %coerce.dive3 = getelementptr inbounds %"class.grpc_core::Duration", ptr %retval, i32 0, i32 0
  store i64 %call2, ptr %coerce.dive3, align 8
  br label %return

return:                                           ; preds = %if.end, %if.then
  %coerce.dive4 = getelementptr inbounds %"class.grpc_core::Duration", ptr %retval, i32 0, i32 0
  %0 = load i64, ptr %coerce.dive4, align 8
  ret i64 %0
}

; Function Attrs: mustprogress nounwind uwtable
define linkonce_odr void @_ZNSt17basic_string_viewIcSt11char_traitsIcEEC2EPKc(ptr noundef nonnull align 8 dereferenceable(16) %this, ptr noundef nonnull %__str) unnamed_addr #5 comdat align 2 personality ptr @__gxx_personality_v0 {
entry:
  %this.addr = alloca ptr, align 8
  %__str.addr = alloca ptr, align 8
  store ptr %this, ptr %this.addr, align 8
  store ptr %__str, ptr %__str.addr, align 8
  %this1 = load ptr, ptr %this.addr, align 8
  %_M_len = getelementptr inbounds %"class.std::basic_string_view", ptr %this1, i32 0, i32 0
  %0 = load ptr, ptr %__str.addr, align 8
  %call = invoke noundef i64 @_ZNSt11char_traitsIcE6lengthEPKc(ptr noundef %0)
          to label %invoke.cont unwind label %terminate.lpad

invoke.cont:                                      ; preds = %entry
  store i64 %call, ptr %_M_len, align 8
  %_M_str = getelementptr inbounds %"class.std::basic_string_view", ptr %this1, i32 0, i32 1
  %1 = load ptr, ptr %__str.addr, align 8
  store ptr %1, ptr %_M_str, align 8
  ret void

terminate.lpad:                                   ; preds = %entry
  %2 = landingpad { ptr, i32 }
          catch ptr null
  %3 = extractvalue { ptr, i32 } %2, 0
  call void @__clang_call_terminate(ptr %3) #18
  unreachable
}

; Function Attrs: mustprogress nounwind uwtable
define linkonce_odr noundef zeroext i1 @_ZNK9grpc_core8DurationneES0_(ptr noundef nonnull align 8 dereferenceable(8) %this, i64 %other.coerce) #5 comdat align 2 {
entry:
  %other = alloca %"class.grpc_core::Duration", align 8
  %this.addr = alloca ptr, align 8
  %coerce.dive = getelementptr inbounds %"class.grpc_core::Duration", ptr %other, i32 0, i32 0
  store i64 %other.coerce, ptr %coerce.dive, align 8
  store ptr %this, ptr %this.addr, align 8
  %this1 = load ptr, ptr %this.addr, align 8
  %millis_ = getelementptr inbounds %"class.grpc_core::Duration", ptr %this1, i32 0, i32 0
  %0 = load i64, ptr %millis_, align 8
  %millis_2 = getelementptr inbounds %"class.grpc_core::Duration", ptr %other, i32 0, i32 0
  %1 = load i64, ptr %millis_2, align 8
  %cmp = icmp ne i64 %0, %1
  ret i1 %cmp
}

; Function Attrs: mustprogress uwtable
define linkonce_odr i64 @_ZN9grpc_core8Duration8InfinityEv() #4 comdat align 2 {
entry:
  %retval = alloca %"class.grpc_core::Duration", align 8
  %call = call noundef i64 @_ZNSt14numeric_limitsIlE3maxEv() #3
  call void @_ZN9grpc_core8DurationC2El(ptr noundef nonnull align 8 dereferenceable(8) %retval, i64 noundef %call)
  %coerce.dive = getelementptr inbounds %"class.grpc_core::Duration", ptr %retval, i32 0, i32 0
  %0 = load i64, ptr %coerce.dive, align 8
  ret i64 %0
}

; Function Attrs: mustprogress uwtable
define internal i64 @_ZN9grpc_core12_GLOBAL__N_120GetClientIdleTimeoutERKNS_11ChannelArgsE(ptr noundef nonnull align 8 dereferenceable(8) %args) #4 {
entry:
  %retval = alloca %"class.grpc_core::Duration", align 8
  %args.addr = alloca ptr, align 8
  %ref.tmp = alloca %"class.std::optional", align 8
  %agg.tmp = alloca %"class.std::basic_string_view", align 8
  %ref.tmp2 = alloca %"class.grpc_core::Duration", align 8
  store ptr %args, ptr %args.addr, align 8
  %0 = load ptr, ptr %args.addr, align 8
  call void @_ZNSt17basic_string_viewIcSt11char_traitsIcEEC2EPKc(ptr noundef nonnull align 8 dereferenceable(16) %agg.tmp, ptr noundef @.str.10) #3
  %1 = getelementptr inbounds { i64, ptr }, ptr %agg.tmp, i32 0, i32 0
  %2 = load i64, ptr %1, align 8
  %3 = getelementptr inbounds { i64, ptr }, ptr %agg.tmp, i32 0, i32 1
  %4 = load ptr, ptr %3, align 8
  %call = call { i64, i8 } @_ZNK9grpc_core11ChannelArgs24GetDurationFromIntMillisESt17basic_string_viewIcSt11char_traitsIcEE(ptr noundef nonnull align 8 dereferenceable(8) %0, i64 %2, ptr %4)
  %coerce.dive = getelementptr inbounds %"class.std::optional", ptr %ref.tmp, i32 0, i32 0
  %coerce.dive1 = getelementptr inbounds %"struct.std::_Optional_base", ptr %coerce.dive, i32 0, i32 0
  %5 = getelementptr inbounds { i64, i8 }, ptr %coerce.dive1, i32 0, i32 0
  %6 = extractvalue { i64, i8 } %call, 0
  store i64 %6, ptr %5, align 8
  %7 = getelementptr inbounds { i64, i8 }, ptr %coerce.dive1, i32 0, i32 1
  %8 = extractvalue { i64, i8 } %call, 1
  store i8 %8, ptr %7, align 8
  %call3 = call i64 @_ZN9grpc_core12_GLOBAL__N_118DefaultIdleTimeoutEv()
  %coerce.dive4 = getelementptr inbounds %"class.grpc_core::Duration", ptr %ref.tmp2, i32 0, i32 0
  store i64 %call3, ptr %coerce.dive4, align 8
  %call5 = call i64 @_ZNOSt8optionalIN9grpc_core8DurationEE8value_orIS1_EES1_OT_(ptr noundef nonnull align 8 dereferenceable(16) %ref.tmp, ptr noundef nonnull align 8 dereferenceable(8) %ref.tmp2)
  %coerce.dive6 = getelementptr inbounds %"class.grpc_core::Duration", ptr %retval, i32 0, i32 0
  store i64 %call5, ptr %coerce.dive6, align 8
  %coerce.dive7 = getelementptr inbounds %"class.grpc_core::Duration", ptr %retval, i32 0, i32 0
  %9 = load i64, ptr %coerce.dive7, align 8
  ret i64 %9
}

; Function Attrs: mustprogress uwtable
define internal noundef zeroext i1 @"_ZZN9grpc_core32RegisterLegacyChannelIdleFiltersEPNS_17CoreConfiguration7BuilderEENK3$_0clERKNS_11ChannelArgsE"(ptr noundef nonnull align 1 dereferenceable(1) %this, ptr noundef nonnull align 8 dereferenceable(8) %channel_args) #4 align 2 {
entry:
  %this.addr = alloca ptr, align 8
  %channel_args.addr = alloca ptr, align 8
  %ref.tmp = alloca %"class.grpc_core::Duration", align 8
  %agg.tmp = alloca %"class.grpc_core::Duration", align 8
  store ptr %this, ptr %this.addr, align 8
  store ptr %channel_args, ptr %channel_args.addr, align 8
  %0 = load ptr, ptr %channel_args.addr, align 8
  %call = call i64 @_ZN9grpc_core12_GLOBAL__N_120GetClientIdleTimeoutERKNS_11ChannelArgsE(ptr noundef nonnull align 8 dereferenceable(8) %0)
  %coerce.dive = getelementptr inbounds %"class.grpc_core::Duration", ptr %ref.tmp, i32 0, i32 0
  store i64 %call, ptr %coerce.dive, align 8
  %call2 = call i64 @_ZN9grpc_core8Duration8InfinityEv()
  %coerce.dive3 = getelementptr inbounds %"class.grpc_core::Duration", ptr %agg.tmp, i32 0, i32 0
  store i64 %call2, ptr %coerce.dive3, align 8
  %coerce.dive4 = getelementptr inbounds %"class.grpc_core::Duration", ptr %agg.tmp, i32 0, i32 0
  %1 = load i64, ptr %coerce.dive4, align 8
  %call5 = call noundef zeroext i1 @_ZNK9grpc_core8DurationneES0_(ptr noundef nonnull align 8 dereferenceable(8) %ref.tmp, i64 %1)
  ret i1 %call5
}

; Function Attrs: mustprogress uwtable
define internal noundef zeroext i1 @"_ZSt13__invoke_implIbRKZN9grpc_core32RegisterLegacyChannelIdleFiltersEPNS0_17CoreConfiguration7BuilderEE3$_0JRKNS0_11ChannelArgsEEET_St14__invoke_otherOT0_DpOT1_"(ptr noundef nonnull align 1 dereferenceable(1) %__f, ptr noundef nonnull align 8 dereferenceable(8) %__args) #4 {
entry:
  %__f.addr = alloca ptr, align 8
  %__args.addr = alloca ptr, align 8
  store ptr %__f, ptr %__f.addr, align 8
  store ptr %__args, ptr %__args.addr, align 8
  %0 = load ptr, ptr %__f.addr, align 8
  %1 = load ptr, ptr %__args.addr, align 8
  %call = call noundef zeroext i1 @"_ZZN9grpc_core32RegisterLegacyChannelIdleFiltersEPNS_17CoreConfiguration7BuilderEENK3$_0clERKNS_11ChannelArgsE"(ptr noundef nonnull align 1 dereferenceable(1) %0, ptr noundef nonnull align 8 dereferenceable(8) %1)
  ret i1 %call
}

; Function Attrs: mustprogress uwtable
define internal noundef zeroext i1 @"_ZSt8__invokeIRKZN9grpc_core32RegisterLegacyChannelIdleFiltersEPNS0_17CoreConfiguration7BuilderEE3$_0JRKNS0_11ChannelArgsEEENSt15__invoke_resultIT_JDpT0_EE4typeEOSB_DpOSC_"(ptr noundef nonnull align 1 dereferenceable(1) %__fn, ptr noundef nonnull align 8 dereferenceable(8) %__args) #4 {
entry:
  %__fn.addr = alloca ptr, align 8
  %__args.addr = alloca ptr, align 8
  store ptr %__fn, ptr %__fn.addr, align 8
  store ptr %__args, ptr %__args.addr, align 8
  %0 = load ptr, ptr %__fn.addr, align 8
  %1 = load ptr, ptr %__args.addr, align 8
  %call = call noundef zeroext i1 @"_ZSt13__invoke_implIbRKZN9grpc_core32RegisterLegacyChannelIdleFiltersEPNS0_17CoreConfiguration7BuilderEE3$_0JRKNS0_11ChannelArgsEEET_St14__invoke_otherOT0_DpOT1_"(ptr noundef nonnull align 1 dereferenceable(1) %0, ptr noundef nonnull align 8 dereferenceable(8) %1)
  ret i1 %call
}

; Function Attrs: mustprogress uwtable
define internal noundef zeroext i1 @"_ZSt6invokeIRKZN9grpc_core32RegisterLegacyChannelIdleFiltersEPNS0_17CoreConfiguration7BuilderEE3$_0JRKNS0_11ChannelArgsEEENSt13invoke_resultIT_JDpT0_EE4typeEOSB_DpOSC_"(ptr noundef nonnull align 1 dereferenceable(1) %__fn, ptr noundef nonnull align 8 dereferenceable(8) %__args) #4 {
entry:
  %__fn.addr = alloca ptr, align 8
  %__args.addr = alloca ptr, align 8
  store ptr %__fn, ptr %__fn.addr, align 8
  store ptr %__args, ptr %__args.addr, align 8
  %0 = load ptr, ptr %__fn.addr, align 8
  %1 = load ptr, ptr %__args.addr, align 8
  %call = call noundef zeroext i1 @"_ZSt8__invokeIRKZN9grpc_core32RegisterLegacyChannelIdleFiltersEPNS0_17CoreConfiguration7BuilderEE3$_0JRKNS0_11ChannelArgsEEENSt15__invoke_resultIT_JDpT0_EE4typeEOSB_DpOSC_"(ptr noundef nonnull align 1 dereferenceable(1) %0, ptr noundef nonnull align 8 dereferenceable(8) %1)
  ret i1 %call
}

; Function Attrs: mustprogress nounwind uwtable
define internal noundef ptr @"_ZSt7launderIZN9grpc_core32RegisterLegacyChannelIdleFiltersEPNS0_17CoreConfiguration7BuilderEE3$_0EPT_S6_"(ptr noundef %__p) #5 {
entry:
  %__p.addr = alloca ptr, align 8
  store ptr %__p, ptr %__p.addr, align 8
  %0 = load ptr, ptr %__p.addr, align 8
  ret ptr %0
}

; Function Attrs: mustprogress uwtable
define internal noundef zeroext i1 @"_ZN4absl12lts_2023080222internal_any_invocable7InvokeRIbRKZN9grpc_core32RegisterLegacyChannelIdleFiltersEPNS3_17CoreConfiguration7BuilderEE3$_0JRKNS3_11ChannelArgsEETnNSt9enable_ifIXntsr3std7is_voidIT_EE5valueEiE4typeELi0EEESE_OT0_DpOT1_"(ptr noundef nonnull align 1 dereferenceable(1) %f, ptr noundef nonnull align 8 dereferenceable(8) %args) #4 {
entry:
  %f.addr = alloca ptr, align 8
  %args.addr = alloca ptr, align 8
  store ptr %f, ptr %f.addr, align 8
  store ptr %args, ptr %args.addr, align 8
  %0 = load ptr, ptr %f.addr, align 8
  %1 = load ptr, ptr %args.addr, align 8
  %call = call noundef zeroext i1 @"_ZSt6invokeIRKZN9grpc_core32RegisterLegacyChannelIdleFiltersEPNS0_17CoreConfiguration7BuilderEE3$_0JRKNS0_11ChannelArgsEEENSt13invoke_resultIT_JDpT0_EE4typeEOSB_DpOSC_"(ptr noundef nonnull align 1 dereferenceable(1) %0, ptr noundef nonnull align 8 dereferenceable(8) %1)
  ret i1 %call
}

; Function Attrs: mustprogress nounwind uwtable
define internal noundef nonnull align 1 dereferenceable(1) ptr @"_ZN4absl12lts_2023080222internal_any_invocable20ObjectInLocalStorageIZN9grpc_core32RegisterLegacyChannelIdleFiltersEPNS3_17CoreConfiguration7BuilderEE3$_0EERT_PNS1_15TypeErasedStateE"(ptr noundef %state) #5 {
entry:
  %state.addr = alloca ptr, align 8
  store ptr %state, ptr %state.addr, align 8
  %0 = load ptr, ptr %state.addr, align 8
  %call = call noundef ptr @"_ZSt7launderIZN9grpc_core32RegisterLegacyChannelIdleFiltersEPNS0_17CoreConfiguration7BuilderEE3$_0EPT_S6_"(ptr noundef %0) #3
  ret ptr %call
}

; Function Attrs: mustprogress uwtable
define internal noundef zeroext i1 @"_ZN4absl12lts_2023080222internal_any_invocable12LocalInvokerILb0EbRKZN9grpc_core32RegisterLegacyChannelIdleFiltersEPNS3_17CoreConfiguration7BuilderEE3$_0JRKNS3_11ChannelArgsEEEET0_PNS1_15TypeErasedStateEDpNS1_18ForwardedParameterIT2_E4typeE"(ptr noundef %state, ptr noundef nonnull align 8 dereferenceable(8) %args) #4 {
entry:
  %state.addr = alloca ptr, align 8
  %args.addr = alloca ptr, align 8
  %f = alloca ptr, align 8
  store ptr %state, ptr %state.addr, align 8
  store ptr %args, ptr %args.addr, align 8
  %0 = load ptr, ptr %state.addr, align 8
  %call = call noundef nonnull align 1 dereferenceable(1) ptr @"_ZN4absl12lts_2023080222internal_any_invocable20ObjectInLocalStorageIZN9grpc_core32RegisterLegacyChannelIdleFiltersEPNS3_17CoreConfiguration7BuilderEE3$_0EERT_PNS1_15TypeErasedStateE"(ptr noundef %0)
  store ptr %call, ptr %f, align 8
  %1 = load ptr, ptr %f, align 8
  %2 = load ptr, ptr %args.addr, align 8
  %call1 = call noundef zeroext i1 @"_ZN4absl12lts_2023080222internal_any_invocable7InvokeRIbRKZN9grpc_core32RegisterLegacyChannelIdleFiltersEPNS3_17CoreConfiguration7BuilderEE3$_0JRKNS3_11ChannelArgsEETnNSt9enable_ifIXntsr3std7is_voidIT_EE5valueEiE4typeELi0EEESE_OT0_DpOT1_"(ptr noundef nonnull align 1 dereferenceable(1) %1, ptr noundef nonnull align 8 dereferenceable(8) %2)
  ret i1 %call1
}